; Function Attrs: nounwind uwtable
define noalias noundef ptr @If_ManCollectMappingDirect(ptr noundef captures(none) %0) local_unnamed_addr #1 {
  %2 = getelementptr inbounds nuw i8, ptr %0, i64 40
  %3 = load ptr, ptr %2, align 8
  %4 = getelementptr i8, ptr %3, i64 4
  %.val2125.i = load i32, ptr %4, align 4
  %5 = icmp sgt i32 %.val2125.i, 0
  br i1 %5, label %.lr.ph.i, label %.critedge.i

.lr.ph.i:                                         ; preds = %1, %.lr.ph.i
  %indvars.iv.i = phi i64 [ %indvars.iv.next.i, %.lr.ph.i ], [ 0, %1 ]
  %6 = phi ptr [ %15, %.lr.ph.i ], [ %3, %1 ]
  %7 = getelementptr i8, ptr %6, i64 8
  %.val23.i = load ptr, ptr %7, align 8
  %8 = getelementptr inbounds nuw ptr, ptr %.val23.i, i64 %indvars.iv.i
  %9 = load ptr, ptr %8, align 8
  %10 = getelementptr inbounds nuw i8, ptr %9, i64 52
  store float 0x4415AF1D80000000, ptr %10, align 4
  %11 = getelementptr inbounds nuw i8, ptr %9, i64 20
  %12 = load i32, ptr %11, align 4
  %13 = getelementptr inbounds nuw i8, ptr %9, i64 16
  store i32 %12, ptr %13, align 8
  %14 = getelementptr inbounds nuw i8, ptr %9, i64 12
  store i32 0, ptr %14, align 4
  %indvars.iv.next.i = add nuw nsw i64 %indvars.iv.i, 1
  %15 = load ptr, ptr %2, align 8
  %16 = getelementptr i8, ptr %15, i64 4
  %.val21.i = load i32, ptr %16, align 4
  %17 = sext i32 %.val21.i to i64
  %18 = icmp slt i64 %indvars.iv.next.i, %17
  br i1 %18, label %.lr.ph.i, label %.critedge.i, !llvm.loop !17

.critedge.i:                                      ; preds = %.lr.ph.i, %1
  %.val1419 = phi ptr [ %3, %1 ], [ %15, %.lr.ph.i ]
  %19 = getelementptr inbounds nuw i8, ptr %0, i64 104
  store i32 0, ptr %19, align 8
  %20 = getelementptr inbounds nuw i8, ptr %0, i64 108
  store float 0.000000e+00, ptr %20, align 4
  %21 = getelementptr inbounds nuw i8, ptr %0, i64 100
  store float 0.000000e+00, ptr %21, align 4
  %22 = getelementptr inbounds nuw i8, ptr %0, i64 32
  %23 = load ptr, ptr %22, align 8
  %24 = getelementptr i8, ptr %23, i64 4
  %.val27.i = load i32, ptr %24, align 4
  %25 = icmp sgt i32 %.val27.i, 0
  br i1 %25, label %.lr.ph29.i, label %If_ManMarkMapping.exit

.lr.ph29.i:                                       ; preds = %.critedge.i, %.lr.ph29.i
  %indvars.iv31.i = phi i64 [ %indvars.iv.next32.i, %.lr.ph29.i ], [ 0, %.critedge.i ]
  %26 = phi ptr [ %34, %.lr.ph29.i ], [ %23, %.critedge.i ]
  %27 = getelementptr i8, ptr %26, i64 8
  %.val22.i = load ptr, ptr %27, align 8
  %28 = getelementptr inbounds nuw ptr, ptr %.val22.i, i64 %indvars.iv31.i
  %29 = load ptr, ptr %28, align 8
  %30 = getelementptr i8, ptr %29, i64 24
  %.val24.i = load ptr, ptr %30, align 8
  %31 = tail call float @If_ManMarkMapping_rec(ptr noundef nonnull %0, ptr noundef %.val24.i)
  %32 = load float, ptr %21, align 4
  %33 = fadd float %31, %32
  store float %33, ptr %21, align 4
  %indvars.iv.next32.i = add nuw nsw i64 %indvars.iv31.i, 1
  %34 = load ptr, ptr %22, align 8
  %35 = getelementptr i8, ptr %34, i64 4
  %.val.i = load i32, ptr %35, align 4
  %36 = sext i32 %.val.i to i64
  %37 = icmp slt i64 %indvars.iv.next32.i, %36
  br i1 %37, label %.lr.ph29.i, label %If_ManMarkMapping.exit.loopexit, !llvm.loop !18

If_ManMarkMapping.exit.loopexit:                  ; preds = %.lr.ph29.i
  %.val14.pre = load ptr, ptr %2, align 8
  br label %If_ManMarkMapping.exit

If_ManMarkMapping.exit:                           ; preds = %If_ManMarkMapping.exit.loopexit, %.critedge.i
  %38 = phi ptr [ %.val14.pre, %If_ManMarkMapping.exit.loopexit ], [ %.val1419, %.critedge.i ]
  %39 = getelementptr i8, ptr %38, i64 4
  %.val14.val = load i32, ptr %39, align 4
  %40 = tail call noalias dereferenceable_or_null(16) ptr @malloc(i64 noundef 16) #11
  %41 = add i32 %.val14.val, -1
  %or.cond.i = icmp ult i32 %41, 7
  %spec.store.select.i = select i1 %or.cond.i, i32 8, i32 %.val14.val
  %42 = getelementptr inbounds nuw i8, ptr %40, i64 4
  store i32 0, ptr %42, align 4
  store i32 %spec.store.select.i, ptr %40, align 8
  %.not.i = icmp eq i32 %spec.store.select.i, 0
  br i1 %.not.i, label %Vec_PtrAlloc.exit, label %43

43:                                               ; preds = %If_ManMarkMapping.exit
  %44 = sext i32 %spec.store.select.i to i64
  %45 = shl nsw i64 %44, 3
  %46 = tail call noalias ptr @malloc(i64 noundef %45) #11
  br label %Vec_PtrAlloc.exit

Vec_PtrAlloc.exit:                                ; preds = %If_ManMarkMapping.exit, %43
  %47 = phi ptr [ %46, %43 ], [ null, %If_ManMarkMapping.exit ]
  %48 = getelementptr inbounds nuw i8, ptr %40, i64 8
  store ptr %47, ptr %48, align 8
  %.val15 = load i32, ptr %39, align 4
  %49 = icmp sgt i32 %.val15, 0
  br i1 %49, label %.lr.ph, label %.critedge

.lr.ph:                                           ; preds = %Vec_PtrAlloc.exit, %86
  %50 = phi ptr [ %87, %86 ], [ %38, %Vec_PtrAlloc.exit ]
  %indvars.iv = phi i64 [ %indvars.iv.next, %86 ], [ 0, %Vec_PtrAlloc.exit ]
  %51 = getelementptr i8, ptr %50, i64 8
  %.val12 = load ptr, ptr %51, align 8
  %52 = getelementptr inbounds nuw ptr, ptr %.val12, i64 %indvars.iv
  %53 = load ptr, ptr %52, align 8
  %.val13 = load i32, ptr %53, align 8
  %54 = and i32 %.val13, 15
  %.not = icmp eq i32 %54, 4
  br i1 %.not, label %55, label %86

55:                                               ; preds = %.lr.ph
  %56 = getelementptr inbounds nuw i8, ptr %53, i64 12
  %57 = load i32, ptr %56, align 4
  %.not11 = icmp eq i32 %57, 0
  br i1 %.not11, label %86, label %58

58:                                               ; preds = %55
  %59 = load i32, ptr %42, align 4
  %60 = load i32, ptr %40, align 8
  %61 = icmp eq i32 %59, %60
  br i1 %61, label %62, label %.Vec_PtrGrow.exit11_crit_edge.i

.Vec_PtrGrow.exit11_crit_edge.i:                  ; preds = %58
  %.pre.i = load ptr, ptr %48, align 8
  br label %Vec_PtrPush.exit

62:                                               ; preds = %58
  %63 = icmp slt i32 %59, 16
  br i1 %63, label %64, label %71

64:                                               ; preds = %62
  %65 = load ptr, ptr %48, align 8
  %.not9.i.i = icmp eq ptr %65, null
  br i1 %.not9.i.i, label %68, label %66

66:                                               ; preds = %64
  %67 = tail call dereferenceable_or_null(128) ptr @realloc(ptr noundef nonnull %65, i64 noundef 128) #12
  br label %Vec_PtrGrow.exit.i

68:                                               ; preds = %64
  %69 = tail call noalias dereferenceable_or_null(128) ptr @malloc(i64 noundef 128) #11
  br label %Vec_PtrGrow.exit.i

Vec_PtrGrow.exit.i:                               ; preds = %68, %66
  %70 = phi ptr [ %67, %66 ], [ %69, %68 ]
  store ptr %70, ptr %48, align 8
  store i32 16, ptr %40, align 8
  br label %Vec_PtrPush.exit

71:                                               ; preds = %62
  %72 = shl nuw nsw i32 %59, 1
  %73 = load ptr, ptr %48, align 8
  %.not9.i10.i = icmp eq ptr %73, null
  %74 = zext nneg i32 %72 to i64
  %75 = shl nuw nsw i64 %74, 3
  br i1 %.not9.i10.i, label %78, label %76

76:                                               ; preds = %71
  %77 = tail call ptr @realloc(ptr noundef nonnull %73, i64 noundef %75) #12
  br label %80

78:                                               ; preds = %71
  %79 = tail call noalias ptr @malloc(i64 noundef %75) #11
  br label %80

80:                                               ; preds = %78, %76
  %81 = phi ptr [ %77, %76 ], [ %79, %78 ]
  store ptr %81, ptr %48, align 8
  store i32 %72, ptr %40, align 8
  br label %Vec_PtrPush.exit

Vec_PtrPush.exit:                                 ; preds = %.Vec_PtrGrow.exit11_crit_edge.i, %Vec_PtrGrow.exit.i, %80
  %82 = phi ptr [ %.pre.i, %.Vec_PtrGrow.exit11_crit_edge.i ], [ %81, %80 ], [ %70, %Vec_PtrGrow.exit.i ]
  %83 = add nsw i32 %59, 1
  store i32 %83, ptr %42, align 4
  %84 = sext i32 %59 to i64
  %85 = getelementptr inbounds ptr, ptr %82, i64 %84
  store ptr %53, ptr %85, align 8
  %.pre = load ptr, ptr %2, align 8
  br label %86

86:                                               ; preds = %.lr.ph, %55, %Vec_PtrPush.exit
  %87 = phi ptr [ %50, %.lr.ph ], [ %50, %55 ], [ %.pre, %Vec_PtrPush.exit ]
  %indvars.iv.next = add nuw nsw i64 %indvars.iv, 1
  %88 = getelementptr i8, ptr %87, i64 4
  %.val = load i32, ptr %88, align 4
  %89 = sext i32 %.val to i64
  %90 = icmp slt i64 %indvars.iv.next, %89
  br i1 %90, label %.lr.ph, label %.critedge, !llvm.loop !19

.critedge:                                        ; preds = %86, %Vec_PtrAlloc.exit
  ret ptr %40
}